; Function Attrs: mustprogress uwtable
define void @_ZNK6casadi8OptiNode4copyEv(ptr dead_on_unwind noalias writable sret(%"class.casadi::Opti") align 8 %0, ptr noundef nonnull align 8 dereferenceable(672) %1) local_unnamed_addr #3 align 2 personality ptr @__gxx_personality_v0 {
  %3 = tail call noalias noundef nonnull dereferenceable(672) ptr @_Znwm(i64 noundef 672) #23
  invoke void @_ZN6casadi8OptiNodeC2ERKS0_(ptr noundef nonnull align 8 dereferenceable(672) %3, ptr noundef nonnull align 8 dereferenceable(672) %1)
          to label %4 unwind label %5

4:                                                ; preds = %2
  tail call void @_ZN6casadi4Opti6createEPNS_8OptiNodeE(ptr dead_on_unwind writable sret(%"class.casadi::Opti") align 8 %0, ptr noundef nonnull %3)
  ret void

5:                                                ; preds = %2
  %6 = landingpad { ptr, i32 }
          cleanup
  tail call void @_ZdlPv(ptr noundef nonnull %3) #22
  resume { ptr, i32 } %6
}